target datalayout = "e-m:e-p270:32:32-p271:32:32-p272:64:64-i64:64-i128:128-f80:128-n8:16:32:64-S128"
target triple = "x86_64-pc-linux-gnu"

%struct._libxml_doc_props = type { ptr, i8, i8, i8, i8, i8, i8, i8 }
%struct._php_libxml_ref_obj = type { ptr, ptr, %struct.php_libxml_cache_tag, i32, i8 }
%struct.php_libxml_cache_tag = type { i64 }

@default_doc_props = internal constant %struct._libxml_doc_props { ptr null, i8 0, i8 0, i8 0, i8 1, i8 0, i8 1, i8 0 }, align 8

; Function Attrs: nounwind uwtable
define hidden ptr @dom_get_doc_props(ptr noundef %0) #0 {
  %2 = alloca ptr, align 8
  %3 = alloca ptr, align 8
  %4 = alloca ptr, align 8
  store ptr %0, ptr %3, align 8
  %5 = load ptr, ptr %3, align 8
  %6 = icmp ne ptr %5, null
  br i1 %6, label %7, label %16

7:                                                ; preds = %1
  %8 = load ptr, ptr %3, align 8
  %9 = getelementptr inbounds %struct._php_libxml_ref_obj, ptr %8, i32 0, i32 1
  %10 = load ptr, ptr %9, align 8
  %11 = icmp ne ptr %10, null
  br i1 %11, label %12, label %16

12:                                               ; preds = %7
  %13 = load ptr, ptr %3, align 8
  %14 = getelementptr inbounds %struct._php_libxml_ref_obj, ptr %13, i32 0, i32 1
  %15 = load ptr, ptr %14, align 8
  store ptr %15, ptr %2, align 8
  br label %27

16:                                               ; preds = %7, %1
  %17 = call noalias ptr @_emalloc_16()
  store ptr %17, ptr %4, align 8
  %18 = load ptr, ptr %4, align 8
  call void @llvm.memcpy.p0.p0.i64(ptr align 8 %18, ptr align 8 @default_doc_props, i64 16, i1 false)
  %19 = load ptr, ptr %3, align 8
  %20 = icmp ne ptr %19, null
  br i1 %20, label %21, label %25

21:                                               ; preds = %16
  %22 = load ptr, ptr %4, align 8
  %23 = load ptr, ptr %3, align 8
  %24 = getelementptr inbounds %struct._php_libxml_ref_obj, ptr %23, i32 0, i32 1
  store ptr %22, ptr %24, align 8
  br label %25

25:                                               ; preds = %21, %16
  %26 = load ptr, ptr %4, align 8
  store ptr %26, ptr %2, align 8
  br label %27

27:                                               ; preds = %25, %12
  %28 = load ptr, ptr %2, align 8
  ret ptr %28
}