; Function Attrs: nounwind uwtable
define hidden ptr @dom_get_doc_props(ptr noundef %0) local_unnamed_addr #1 {
  %.not = icmp eq ptr %0, null
  br i1 %.not, label %.thread, label %3

.thread:                                          ; preds = %1
  %2 = tail call noalias ptr @_emalloc_16() #16
  tail call void @llvm.memcpy.p0.p0.i64(ptr noundef nonnull align 8 dereferenceable(16) %2, ptr noundef nonnull align 8 dereferenceable(16) @default_doc_props, i64 16, i1 false)
  br label %8

3:                                                ; preds = %1
  %4 = getelementptr inbounds i8, ptr %0, i64 8
  %5 = load ptr, ptr %4, align 8
  %.not11 = icmp eq ptr %5, null
  br i1 %.not11, label %6, label %8

6:                                                ; preds = %3
  %7 = tail call noalias ptr @_emalloc_16() #16
  tail call void @llvm.memcpy.p0.p0.i64(ptr noundef nonnull align 8 dereferenceable(16) %7, ptr noundef nonnull align 8 dereferenceable(16) @default_doc_props, i64 16, i1 false)
  store ptr %7, ptr %4, align 8
  br label %8

8:                                                ; preds = %.thread, %6, %3
  %.0 = phi ptr [ %5, %3 ], [ %7, %6 ], [ %2, %.thread ]
  ret ptr %.0
}